(dp0
VServer
p1
Vcmsweb.cern.ch
p2
sVPort
p3
V
p4
sVRequestName
p5
V250222_164753:jelee_crab_TBbartoLplusNuBbar-s-ch
p6
sVvoRole
p7
VNULL
p8
sVvoGroup
p9
g4
sVinstance
p10
Vprod
p11
sVOriginalConfig
p12
ccopy_reg
_reconstructor
p13
(cWMCore.Configuration
Configuration
p14
c__builtin__
object
p15
Ntp16
Rp17
(dp18
V_internal_sections
p19
(lp20
VGeneral
p21
aVJobType
p22
aVData
p23
aVSite
p24
asg21
g13
(cWMCore.Configuration
ConfigSection
p25
g15
Ntp26
Rp27
(dp28
V_internal_documentation
p29
g4
sV_internal_name
p30
g21
sV_internal_settings
p31
c__builtin__
set
p32
((lp33
VtransferLogs
p34
aVrequestName
p35
atp36
Rp37
sV_internal_docstrings
p38
(dp39
sV_internal_children
p40
g32
((lp41
tp42
Rp43
sV_internal_parent_ref
p44
NsV_internal_skipChecks
p45
I00
sg35
VTBbartoLplusNuBbar-s-ch
p46
sg34
I01
sbsg22
g13
(g25
g15
Ntp47
Rp48
(dp49
g29
g4
sg30
g22
sg31
g32
((lp50
VscriptExe
p51
aVpsetName
p52
aVpluginName
p53
aVinputFiles
p54
atp55
Rp56
sg38
(dp57
sg40
g32
((lp58
tp59
Rp60
sg44
Nsg45
I00
sg53
VAnalysis
p61
sg52
VPSet.py
p62
sg51
Vcrab_script.sh
p63
sg54
(lp64
Vcrab_script.py
p65
aV../../Run3_keep_and_drop_MC.txt
p66
asbsg23
g13
(g25
g15
Ntp67
Rp68
(dp69
g29
g4
sg30
g23
sg31
g32
((lp70
VoutLFNDirBase
p71
aVoutputDatasetTag
p72
aVpublication
p73
aVinputDataset
p74
aVunitsPerJob
p75
aVinputDBS
p76
aVsplitting
p77
atp78
Rp79
sg38
(dp80
sg40
g32
((lp81
tp82
Rp83
sg44
Nsg45
I00
sg74
V/TBbartoLplusNuBbar-s-channel-4FS_TuneCP5_13p6TeV_amcatnlo-pythia8/Run3Summer22NanoAODv12-130X_mcRun3_2022_realistic_v5-v2/NANOAODSIM
p84
sg76
Vglobal
p85
sg77
VFileBased
p86
sg75
I1
sg71
V/store/user/jelee/crab_NanoAOD/2022preEE/TBbartoLplusNuBbar-s-ch
p87
sg73
I00
sg72
g46
sbsg24
g13
(g25
g15
Ntp88
Rp89
(dp90
g29
g4
sg30
g24
sg31
g32
((lp91
VstorageSite
p92
atp93
Rp94
sg38
(dp95
sg40
g32
((lp96
tp97
Rp98
sg44
Nsg45
I00
sg92
VT3_KR_KNU
p99
sbsbs.