(dp0
VServer
p1
Vcmsweb.cern.ch
p2
sVPort
p3
V
p4
sVRequestName
p5
V250223_193452:jelee_crab_DYto2E_MLL-4000to6000_20250223_203447
p6
sVvoRole
p7
VNULL
p8
sVvoGroup
p9
g4
sVinstance
p10
Vprod
p11
sVOriginalConfig
p12
ccopy_reg
_reconstructor
p13
(cWMCore.Configuration
Configuration
p14
c__builtin__
object
p15
Ntp16
Rp17
(dp18
V_internal_sections
p19
(lp20
VGeneral
p21
aVJobType
p22
aVData
p23
aVSite
p24
asg21
g13
(cWMCore.Configuration
ConfigSection
p25
g15
Ntp26
Rp27
(dp28
V_internal_documentation
p29
g4
sV_internal_name
p30
g21
sV_internal_settings
p31
c__builtin__
set
p32
((lp33
VrequestName
p34
aVtransferLogs
p35
atp36
Rp37
sV_internal_docstrings
p38
(dp39
sV_internal_children
p40
g32
((lp41
tp42
Rp43
sV_internal_parent_ref
p44
NsV_internal_skipChecks
p45
I00
sg34
VDYto2E_MLL-4000to6000_20250223_203447
p46
sg35
I01
sbsg22
g13
(g25
g15
Ntp47
Rp48
(dp49
g29
g4
sg30
g22
sg31
g32
((lp50
VpsetName
p51
aVpluginName
p52
aVscriptExe
p53
aVinputFiles
p54
atp55
Rp56
sg38
(dp57
sg40
g32
((lp58
tp59
Rp60
sg44
Nsg45
I00
sg52
VAnalysis
p61
sg51
VPSet.py
p62
sg53
Vcrab_script.sh
p63
sg54
(lp64
Vcrab_script.py
p65
aV../../Run3_keep_and_drop_MC.txt
p66
asbsg23
g13
(g25
g15
Ntp67
Rp68
(dp69
g29
g4
sg30
g23
sg31
g32
((lp70
VinputDBS
p71
aVoutLFNDirBase
p72
aVsplitting
p73
aVpublication
p74
aVinputDataset
p75
aVoutputDatasetTag
p76
aVunitsPerJob
p77
atp78
Rp79
sg38
(dp80
sg40
g32
((lp81
tp82
Rp83
sg44
Nsg45
I00
sg75
V/DYto2E_MLL-4000to6000_TuneCP5_13p6TeV_powheg-pythia8/Run3Summer22NanoAODv12-130X_mcRun3_2022_realistic_v5-v2/NANOAODSIM
p84
sg71
Vglobal
p85
sg73
VFileBased
p86
sg77
I1
sg72
V/store/user/jelee/crab_NanoAOD/2022preEE/DYto2E_MLL-4000to6000
p87
sg74
I00
sg76
VDYto2E_MLL-4000to6000
p88
sbsg24
g13
(g25
g15
Ntp89
Rp90
(dp91
g29
g4
sg30
g24
sg31
g32
((lp92
VstorageSite
p93
atp94
Rp95
sg38
(dp96
sg40
g32
((lp97
tp98
Rp99
sg44
Nsg45
I00
sg93
VT3_KR_KNU
p100
sbsbs.