(dp0
VServer
p1
Vcmsweb.cern.ch
p2
sVPort
p3
V
p4
sVRequestName
p5
V250223_162803:jelee_crab_Muon_Run2022D_20250223_172758
p6
sVvoRole
p7
VNULL
p8
sVvoGroup
p9
g4
sVinstance
p10
Vprod
p11
sVOriginalConfig
p12
ccopy_reg
_reconstructor
p13
(cWMCore.Configuration
Configuration
p14
c__builtin__
object
p15
Ntp16
Rp17
(dp18
V_internal_sections
p19
(lp20
VGeneral
p21
aVJobType
p22
aVData
p23
aVSite
p24
asg21
g13
(cWMCore.Configuration
ConfigSection
p25
g15
Ntp26
Rp27
(dp28
V_internal_documentation
p29
g4
sV_internal_name
p30
g21
sV_internal_settings
p31
c__builtin__
set
p32
((lp33
VtransferLogs
p34
aVrequestName
p35
atp36
Rp37
sV_internal_docstrings
p38
(dp39
sV_internal_children
p40
g32
((lp41
tp42
Rp43
sV_internal_parent_ref
p44
NsV_internal_skipChecks
p45
I00
sg35
VMuon_Run2022D_20250223_172758
p46
sg34
I01
sbsg22
g13
(g25
g15
Ntp47
Rp48
(dp49
g29
g4
sg30
g22
sg31
g32
((lp50
VinputFiles
p51
aVpluginName
p52
aVscriptExe
p53
aVpsetName
p54
atp55
Rp56
sg38
(dp57
sg40
g32
((lp58
tp59
Rp60
sg44
Nsg45
I00
sg52
VAnalysis
p61
sg54
VPSet.py
p62
sg53
Vcrab_script.sh
p63
sg51
(lp64
Vcrab_script.py
p65
aV../../Run3_keep_and_drop_Data.txt
p66
asbsg23
g13
(g25
g15
Ntp67
Rp68
(dp69
g29
g4
sg30
g23
sg31
g32
((lp70
VoutputDatasetTag
p71
aVinputDBS
p72
aVunitsPerJob
p73
aVoutLFNDirBase
p74
aVlumiMask
p75
aVinputDataset
p76
aVpublication
p77
aVsplitting
p78
atp79
Rp80
sg38
(dp81
sg40
g32
((lp82
tp83
Rp84
sg44
Nsg45
I00
sg76
V/Muon/Run2022D-22Sep2023-v1/NANOAOD
p85
sg72
Vglobal
p86
sg78
VFileBased
p87
sg73
I1
sg74
V/store/user/jelee/crab_NanoAOD/2022preEE/Muon_Run2022D
p88
sg77
I00
sg71
VMuon_Run2022D
p89
sg75
Vhttps://cms-service-dqmdc.web.cern.ch/CAF/certification/Collisions22/Cert_Collisions2022_355100_362760_Golden.json
p90
sbsg24
g13
(g25
g15
Ntp91
Rp92
(dp93
g29
g4
sg30
g24
sg31
g32
((lp94
VstorageSite
p95
atp96
Rp97
sg38
(dp98
sg40
g32
((lp99
tp100
Rp101
sg44
Nsg45
I00
sg95
VT3_KR_KNU
p102
sbsbs.